#include <math.h>
#include <stdio.h>
#include <stdlib.h>
#include <string.h>
#include <iostream>
using namespace std;

int main()
{
	int m, a, b;	
	cin >> m;
    for (a = 3; a <= m / 2; a = a + 2)
	{
		int i;
		for (i = 3; i <= a; i = i + 2)
			if (a % i == 0)
				break;	
		if (i == a)
			b = m - a;	
		else 
			continue;	
		int k;
		for (k = 3; k <= b; k = k + 2)
			if (b % k == 0)
				break;	
		if (k == b)
			cout << a << " " << b << endl;	
	}
	return 0;
}
