; ModuleID = 'source-C-CXX/42/832.cpp'
source_filename = "source-C-CXX/42/832.cpp"
target datalayout = "e-m:e-p270:32:32-p271:32:32-p272:64:64-i64:64-f80:128-n8:16:32:64-S128"
target triple = "x86_64-pc-linux-gnu"

%"class.std::ios_base::Init" = type { i8 }
%"class.std::basic_istream" = type { i32 (...)**, i64, %"class.std::basic_ios" }
%"class.std::basic_ios" = type { %"class.std::ios_base", %"class.std::basic_ostream"*, i8, i8, %"class.std::basic_streambuf"*, %"class.std::ctype"*, %"class.std::num_put"*, %"class.std::num_get"* }
%"class.std::ios_base" = type { i32 (...)**, i64, i64, i32, i32, i32, %"struct.std::ios_base::_Callback_list"*, %"struct.std::ios_base::_Words", [8 x %"struct.std::ios_base::_Words"], i32, %"struct.std::ios_base::_Words"*, %"class.std::locale" }
%"struct.std::ios_base::_Callback_list" = type { %"struct.std::ios_base::_Callback_list"*, void (i32, %"class.std::ios_base"*, i32)*, i32, i32 }
%"struct.std::ios_base::_Words" = type { i8*, i64 }
%"class.std::locale" = type { %"class.std::locale::_Impl"* }
%"class.std::locale::_Impl" = type { i32, %"class.std::locale::facet"**, i64, %"class.std::locale::facet"**, i8** }
%"class.std::locale::facet" = type <{ i32 (...)**, i32, [4 x i8] }>
%"class.std::basic_ostream" = type { i32 (...)**, %"class.std::basic_ios" }
%"class.std::basic_streambuf" = type { i32 (...)**, i8*, i8*, i8*, i8*, i8*, i8*, %"class.std::locale" }
%"class.std::ctype" = type <{ %"class.std::locale::facet.base", [4 x i8], %struct.__locale_struct*, i8, [7 x i8], i32*, i32*, i16*, i8, [256 x i8], [256 x i8], i8, [6 x i8] }>
%"class.std::locale::facet.base" = type <{ i32 (...)**, i32 }>
%struct.__locale_struct = type { [13 x %struct.__locale_data*], i16*, i32*, i32*, [13 x i8*] }
%struct.__locale_data = type opaque
%"class.std::num_put" = type { %"class.std::locale::facet.base", [4 x i8] }
%"class.std::num_get" = type { %"class.std::locale::facet.base", [4 x i8] }

@_ZStL8__ioinit = internal global %"class.std::ios_base::Init" zeroinitializer, align 1
@__dso_handle = external hidden global i8
@_ZSt3cin = external global %"class.std::basic_istream", align 8
@_ZSt4cout = external global %"class.std::basic_ostream", align 8
@.str = private unnamed_addr constant [2 x i8] c" \00", align 1
@llvm.global_ctors = appending global [1 x { i32, void ()*, i8* }] [{ i32, void ()*, i8* } { i32 65535, void ()* @_GLOBAL__sub_I_832.cpp, i8* null }]

declare void @_ZNSt8ios_base4InitC1Ev(%"class.std::ios_base::Init"* nonnull align 1 dereferenceable(1)) unnamed_addr #0

; Function Attrs: nounwind
declare void @_ZNSt8ios_base4InitD1Ev(%"class.std::ios_base::Init"* nonnull align 1 dereferenceable(1)) unnamed_addr #1

; Function Attrs: nofree nounwind
declare i32 @__cxa_atexit(void (i8*)*, i8*, i8*) local_unnamed_addr #2

; Function Attrs: mustprogress norecurse sspstrong uwtable
define dso_local i32 @main() local_unnamed_addr #3 {
  %1 = alloca i32, align 4
  %2 = bitcast i32* %1 to i8*
  call void @llvm.lifetime.start.p0i8(i64 4, i8* nonnull %2) #7
  %3 = call nonnull align 8 dereferenceable(16) %"class.std::basic_istream"* @_ZNSirsERi(%"class.std::basic_istream"* nonnull align 8 dereferenceable(16) @_ZSt3cin, i32* nonnull align 4 dereferenceable(4) %1)
  %4 = load i32, i32* %1, align 4, !tbaa !5
  %5 = icmp slt i32 %4, 6
  br i1 %5, label %70, label %6

6:                                                ; preds = %0, %65
  %7 = phi i32 [ %66, %65 ], [ %4, %0 ]
  %8 = phi i32 [ %67, %65 ], [ 3, %0 ]
  br label %9

9:                                                ; preds = %6, %13
  %10 = phi i32 [ %14, %13 ], [ 3, %6 ]
  %11 = urem i32 %8, %10
  %12 = icmp eq i32 %11, 0
  br i1 %12, label %16, label %13

13:                                               ; preds = %9
  %14 = add nuw nsw i32 %10, 2
  %15 = icmp ugt i32 %14, %8
  br i1 %15, label %65, label %9, !llvm.loop !9

16:                                               ; preds = %9
  %17 = icmp eq i32 %10, %8
  br i1 %17, label %18, label %65

18:                                               ; preds = %16
  %19 = sub nsw i32 %7, %8
  %20 = icmp slt i32 %19, 3
  br i1 %20, label %28, label %21

21:                                               ; preds = %18, %25
  %22 = phi i32 [ %26, %25 ], [ 3, %18 ]
  %23 = srem i32 %19, %22
  %24 = icmp eq i32 %23, 0
  br i1 %24, label %28, label %25

25:                                               ; preds = %21
  %26 = add nuw nsw i32 %22, 2
  %27 = icmp sgt i32 %26, %19
  br i1 %27, label %28, label %21, !llvm.loop !11

28:                                               ; preds = %25, %21, %18
  %29 = phi i32 [ 3, %18 ], [ %22, %21 ], [ %26, %25 ]
  %30 = icmp eq i32 %29, %19
  br i1 %30, label %31, label %65

31:                                               ; preds = %28
  %32 = call nonnull align 8 dereferenceable(8) %"class.std::basic_ostream"* @_ZNSolsEi(%"class.std::basic_ostream"* nonnull align 8 dereferenceable(8) @_ZSt4cout, i32 %8)
  %33 = call nonnull align 8 dereferenceable(8) %"class.std::basic_ostream"* @_ZSt16__ostream_insertIcSt11char_traitsIcEERSt13basic_ostreamIT_T0_ES6_PKS3_l(%"class.std::basic_ostream"* nonnull align 8 dereferenceable(8) %32, i8* nonnull getelementptr inbounds ([2 x i8], [2 x i8]* @.str, i64 0, i64 0), i64 1)
  %34 = call nonnull align 8 dereferenceable(8) %"class.std::basic_ostream"* @_ZNSolsEi(%"class.std::basic_ostream"* nonnull align 8 dereferenceable(8) %32, i32 %19)
  %35 = bitcast %"class.std::basic_ostream"* %34 to i8**
  %36 = load i8*, i8** %35, align 8, !tbaa !12
  %37 = getelementptr i8, i8* %36, i64 -24
  %38 = bitcast i8* %37 to i64*
  %39 = load i64, i64* %38, align 8
  %40 = bitcast %"class.std::basic_ostream"* %34 to i8*
  %41 = add nsw i64 %39, 240
  %42 = getelementptr inbounds i8, i8* %40, i64 %41
  %43 = bitcast i8* %42 to %"class.std::ctype"**
  %44 = load %"class.std::ctype"*, %"class.std::ctype"** %43, align 8, !tbaa !14
  %45 = icmp eq %"class.std::ctype"* %44, null
  br i1 %45, label %46, label %47

46:                                               ; preds = %31
  call void @_ZSt16__throw_bad_castv() #8
  unreachable

47:                                               ; preds = %31
  %48 = getelementptr inbounds %"class.std::ctype", %"class.std::ctype"* %44, i64 0, i32 8
  %49 = load i8, i8* %48, align 8, !tbaa !18
  %50 = icmp eq i8 %49, 0
  br i1 %50, label %54, label %51

51:                                               ; preds = %47
  %52 = getelementptr inbounds %"class.std::ctype", %"class.std::ctype"* %44, i64 0, i32 9, i64 10
  %53 = load i8, i8* %52, align 1, !tbaa !20
  br label %60

54:                                               ; preds = %47
  call void @_ZNKSt5ctypeIcE13_M_widen_initEv(%"class.std::ctype"* nonnull align 8 dereferenceable(570) %44)
  %55 = bitcast %"class.std::ctype"* %44 to i8 (%"class.std::ctype"*, i8)***
  %56 = load i8 (%"class.std::ctype"*, i8)**, i8 (%"class.std::ctype"*, i8)*** %55, align 8, !tbaa !12
  %57 = getelementptr inbounds i8 (%"class.std::ctype"*, i8)*, i8 (%"class.std::ctype"*, i8)** %56, i64 6
  %58 = load i8 (%"class.std::ctype"*, i8)*, i8 (%"class.std::ctype"*, i8)** %57, align 8
  %59 = call signext i8 %58(%"class.std::ctype"* nonnull align 8 dereferenceable(570) %44, i8 signext 10)
  br label %60

60:                                               ; preds = %51, %54
  %61 = phi i8 [ %53, %51 ], [ %59, %54 ]
  %62 = call nonnull align 8 dereferenceable(8) %"class.std::basic_ostream"* @_ZNSo3putEc(%"class.std::basic_ostream"* nonnull align 8 dereferenceable(8) %34, i8 signext %61)
  %63 = call nonnull align 8 dereferenceable(8) %"class.std::basic_ostream"* @_ZNSo5flushEv(%"class.std::basic_ostream"* nonnull align 8 dereferenceable(8) %62)
  %64 = load i32, i32* %1, align 4, !tbaa !5
  br label %65

65:                                               ; preds = %13, %28, %60, %16
  %66 = phi i32 [ %7, %28 ], [ %64, %60 ], [ %7, %16 ], [ %7, %13 ]
  %67 = add nuw nsw i32 %8, 2
  %68 = sdiv i32 %66, 2
  %69 = icmp sgt i32 %67, %68
  br i1 %69, label %70, label %6, !llvm.loop !21

70:                                               ; preds = %65, %0
  call void @llvm.lifetime.end.p0i8(i64 4, i8* nonnull %2) #7
  ret i32 0
}

; Function Attrs: argmemonly mustprogress nofree nosync nounwind willreturn
declare void @llvm.lifetime.start.p0i8(i64 immarg, i8* nocapture) #4

declare nonnull align 8 dereferenceable(16) %"class.std::basic_istream"* @_ZNSirsERi(%"class.std::basic_istream"* nonnull align 8 dereferenceable(16), i32* nonnull align 4 dereferenceable(4)) local_unnamed_addr #0

declare nonnull align 8 dereferenceable(8) %"class.std::basic_ostream"* @_ZNSolsEi(%"class.std::basic_ostream"* nonnull align 8 dereferenceable(8), i32) local_unnamed_addr #0

; Function Attrs: argmemonly mustprogress nofree nosync nounwind willreturn
declare void @llvm.lifetime.end.p0i8(i64 immarg, i8* nocapture) #4

declare nonnull align 8 dereferenceable(8) %"class.std::basic_ostream"* @_ZSt16__ostream_insertIcSt11char_traitsIcEERSt13basic_ostreamIT_T0_ES6_PKS3_l(%"class.std::basic_ostream"* nonnull align 8 dereferenceable(8), i8*, i64) local_unnamed_addr #0

declare nonnull align 8 dereferenceable(8) %"class.std::basic_ostream"* @_ZNSo3putEc(%"class.std::basic_ostream"* nonnull align 8 dereferenceable(8), i8 signext) local_unnamed_addr #0

declare nonnull align 8 dereferenceable(8) %"class.std::basic_ostream"* @_ZNSo5flushEv(%"class.std::basic_ostream"* nonnull align 8 dereferenceable(8)) local_unnamed_addr #0

; Function Attrs: noreturn
declare void @_ZSt16__throw_bad_castv() local_unnamed_addr #5

declare void @_ZNKSt5ctypeIcE13_M_widen_initEv(%"class.std::ctype"* nonnull align 8 dereferenceable(570)) local_unnamed_addr #0

; Function Attrs: sspstrong uwtable
define internal void @_GLOBAL__sub_I_832.cpp() #6 section ".text.startup" {
  tail call void @_ZNSt8ios_base4InitC1Ev(%"class.std::ios_base::Init"* nonnull align 1 dereferenceable(1) @_ZStL8__ioinit)
  %1 = tail call i32 @__cxa_atexit(void (i8*)* bitcast (void (%"class.std::ios_base::Init"*)* @_ZNSt8ios_base4InitD1Ev to void (i8*)*), i8* getelementptr inbounds (%"class.std::ios_base::Init", %"class.std::ios_base::Init"* @_ZStL8__ioinit, i64 0, i32 0), i8* nonnull @__dso_handle) #7
  ret void
}


!llvm.module.flags = !{!0, !1, !2, !3}
!llvm.ident = !{!4}

!0 = !{i32 1, !"wchar_size", i32 4}
!1 = !{i32 7, !"PIC Level", i32 2}
!2 = !{i32 7, !"PIE Level", i32 2}
!3 = !{i32 7, !"uwtable", i32 1}
!4 = !{!"clang version 13.0.0"}
!5 = !{!6, !6, i64 0}
!6 = !{!"int", !7, i64 0}
!7 = !{!"omnipotent char", !8, i64 0}
!8 = !{!"Simple C++ TBAA"}
!9 = distinct !{!9, !10}
!10 = !{!"llvm.loop.mustprogress"}
!11 = distinct !{!11, !10}
!12 = !{!13, !13, i64 0}
!13 = !{!"vtable pointer", !8, i64 0}
!14 = !{!15, !16, i64 240}
!15 = !{!"_ZTSSt9basic_iosIcSt11char_traitsIcEE", !16, i64 216, !7, i64 224, !17, i64 225, !16, i64 232, !16, i64 240, !16, i64 248, !16, i64 256}
!16 = !{!"any pointer", !7, i64 0}
!17 = !{!"bool", !7, i64 0}
!18 = !{!19, !7, i64 56}
!19 = !{!"_ZTSSt5ctypeIcE", !16, i64 16, !17, i64 24, !16, i64 32, !16, i64 40, !16, i64 48, !7, i64 56, !7, i64 57, !7, i64 313, !7, i64 569}
!20 = !{!7, !7, i64 0}
!21 = distinct !{!21, !10}
